; Function Attrs: mustprogress nounwind uwtable
define void @_ZN5Ipopt14DenseSymMatrixD2Ev(ptr noundef nonnull align 8 dereferenceable(97) initializes((0, 8), (16, 24)) %0) unnamed_addr #3 align 2 personality ptr @__gxx_personality_v0 {
  store ptr getelementptr inbounds nuw inrange(-16, 96) (i8, ptr @_ZTVN5Ipopt14DenseSymMatrixE, i64 16), ptr %0, align 8, !tbaa !8
  %2 = getelementptr inbounds nuw i8, ptr %0, i64 16
  store ptr getelementptr inbounds nuw inrange(-16, 16) (i8, ptr @_ZTVN5Ipopt14DenseSymMatrixE, i64 128), ptr %2, align 8, !tbaa !8
  %3 = getelementptr inbounds nuw i8, ptr %0, i64 88
  %4 = load ptr, ptr %3, align 8, !tbaa !35
  %5 = icmp eq ptr %4, null
  br i1 %5, label %7, label %6

6:                                                ; preds = %1
  tail call void @_ZdaPv(ptr noundef nonnull %4) #22
  br label %7

7:                                                ; preds = %6, %1
  store ptr getelementptr inbounds nuw inrange(-16, 96) (i8, ptr @_ZTVN5Ipopt6MatrixE, i64 16), ptr %0, align 8, !tbaa !8
  store ptr getelementptr inbounds nuw inrange(-16, 16) (i8, ptr @_ZTVN5Ipopt6MatrixE, i64 128), ptr %2, align 8, !tbaa !8
  %8 = getelementptr inbounds nuw i8, ptr %0, i64 56
  %9 = load ptr, ptr %8, align 8, !tbaa !10
  %.not.i.i.i = icmp eq ptr %9, null
  br i1 %.not.i.i.i, label %_ZN5Ipopt6MatrixD2Ev.exit, label %10

10:                                               ; preds = %7
  %11 = getelementptr inbounds nuw i8, ptr %9, i64 8
  %12 = load i32, ptr %11, align 8, !tbaa !3
  %13 = add nsw i32 %12, -1
  store i32 %13, ptr %11, align 8, !tbaa !3
  %14 = icmp eq i32 %13, 0
  br i1 %14, label %15, label %_ZN5Ipopt6MatrixD2Ev.exit

15:                                               ; preds = %10
  %16 = load ptr, ptr %9, align 8, !tbaa !8
  %17 = getelementptr inbounds nuw i8, ptr %16, i64 8
  %18 = load ptr, ptr %17, align 8
  tail call void %18(ptr noundef nonnull align 8 dereferenceable(20) %9) #20
  store ptr null, ptr %8, align 8, !tbaa !10
  br label %_ZN5Ipopt6MatrixD2Ev.exit

_ZN5Ipopt6MatrixD2Ev.exit:                        ; preds = %7, %10, %15
  tail call void @_ZN5Ipopt7SubjectD2Ev(ptr noundef nonnull align 8 dereferenceable(32) %2) #20
  store ptr getelementptr inbounds nuw inrange(-16, 16) (i8, ptr @_ZTVN5Ipopt16ReferencedObjectE, i64 16), ptr %0, align 8, !tbaa !8
  ret void
}